target datalayout = "e-m:e-p270:32:32-p271:32:32-p272:64:64-i64:64-i128:128-f80:128-n8:16:32:64-S128"
target triple = "x86_64-pc-linux-gnu"

@proto_register_udt.ett = internal global [1 x ptr] [ptr @ett_udt], align 8
@.str.51 = private unnamed_addr constant [13 x i8] c"UDT Protocol\00", align 1
@.str.52 = private unnamed_addr constant [4 x i8] c"UDT\00", align 1
@.str.53 = private unnamed_addr constant [4 x i8] c"udt\00", align 1
@proto_udt = internal global i32 0, align 4
@udt_handle = internal global ptr null, align 8
@.str.54 = private unnamed_addr constant [9 x i8] c"UDT data\00", align 1
@heur_subdissector_list = internal global ptr null, align 8

; Function Attrs: null_pointer_is_valid sspstrong uwtable
define hidden void @proto_register_udt() #0 {
  %1 = alloca ptr, align 8
  call void @llvm.lifetime.start.p0(i64 8, ptr %1) #5
  %2 = call i32 @proto_register_protocol(ptr noundef @.str.51, ptr noundef @.str.52, ptr noundef @.str.53)
  store i32 %2, ptr @proto_udt, align 4
  %3 = load i32, ptr @proto_udt, align 4
  call void @proto_register_field_array(i32 noundef %3, ptr noundef @proto_register_udt.hf, i32 noundef 26)
  call void @proto_register_subtree_array(ptr noundef @proto_register_udt.ett, i32 noundef 1)
  %4 = load i32, ptr @proto_udt, align 4
  %5 = call ptr @expert_register_protocol(i32 noundef %4)
  store ptr %5, ptr %1, align 8
  %6 = load ptr, ptr %1, align 8
  call void @expert_register_field_array(ptr noundef %6, ptr noundef @proto_register_udt.ei, i32 noundef 1)
  %7 = load i32, ptr @proto_udt, align 4
  %8 = call ptr @register_dissector(ptr noundef @.str.53, ptr noundef @dissect_udt, i32 noundef %7)
  store ptr %8, ptr @udt_handle, align 8
  %9 = load i32, ptr @proto_udt, align 4
  %10 = call ptr @register_heur_dissector_list_with_description(ptr noundef @.str.53, ptr noundef @.str.54, i32 noundef %9)
  store ptr %10, ptr @heur_subdissector_list, align 8
  call void @llvm.lifetime.end.p0(i64 8, ptr %1) #5
  ret void
}