; Function Attrs: null_pointer_is_valid sspstrong uwtable
define hidden void @proto_register_udt() local_unnamed_addr #0 {
  %1 = tail call i32 @proto_register_protocol(ptr noundef nonnull @.str.51, ptr noundef nonnull @.str.52, ptr noundef nonnull @.str.53)
  store i32 %1, ptr @proto_udt, align 4
  tail call void @proto_register_field_array(i32 noundef %1, ptr noundef nonnull @proto_register_udt.hf, i32 noundef 26)
  tail call void @proto_register_subtree_array(ptr noundef nonnull @proto_register_udt.ett, i32 noundef 1)
  %2 = load i32, ptr @proto_udt, align 4
  %3 = tail call ptr @expert_register_protocol(i32 noundef %2)
  tail call void @expert_register_field_array(ptr noundef %3, ptr noundef nonnull @proto_register_udt.ei, i32 noundef 1)
  %4 = load i32, ptr @proto_udt, align 4
  %5 = tail call ptr @register_dissector(ptr noundef nonnull @.str.53, ptr noundef nonnull @dissect_udt, i32 noundef %4)
  store ptr %5, ptr @udt_handle, align 8
  %6 = load i32, ptr @proto_udt, align 4
  %7 = tail call ptr @register_heur_dissector_list_with_description(ptr noundef nonnull @.str.53, ptr noundef nonnull @.str.54, i32 noundef %6)
  store ptr %7, ptr @heur_subdissector_list, align 8
  ret void
}